ARM GAS  /tmp/ccPZc5IS.s 			page 1


   1              		.syntax unified
   2              		.arch armv7-a
   3              		.eabi_attribute 27, 3
   4              		.eabi_attribute 28, 1
   5              		.fpu vfpv3-d16
   6              		.eabi_attribute 20, 1
   7              		.eabi_attribute 21, 1
   8              		.eabi_attribute 23, 3
   9              		.eabi_attribute 24, 1
  10              		.eabi_attribute 25, 1
  11              		.eabi_attribute 26, 2
  12              		.eabi_attribute 30, 2
  13              		.eabi_attribute 34, 1
  14              		.eabi_attribute 18, 4
  15              		.thumb
  16              		.file	"stage1_test.c"
  17              		.text
  18              	.Ltext0:
  19              		.cfi_sections	.debug_frame
  20              		.align	2
  21              		.thumb
  22              		.thumb_func
  23              		.type	componentID.part.0, %function
  24              	componentID.part.0:
  25              	.LFB32:
  26              		.file 1 "stage1_test.c"
   1:stage1_test.c **** #include <stdio.h>
   2:stage1_test.c **** #include <string.h>
   3:stage1_test.c **** #include <time.h>
   4:stage1_test.c **** 
   5:stage1_test.c **** #define TEST1 15
   6:stage1_test.c **** #define TEST2 115
   7:stage1_test.c **** #define TEST3 2
   8:stage1_test.c **** #define TEST4 49
   9:stage1_test.c **** #define TEST5 3
  10:stage1_test.c **** #define TEST6 14
  11:stage1_test.c **** #define BUTTON 112
  12:stage1_test.c **** 
  13:stage1_test.c **** int testComponent(int,struct timespec*); 
  14:stage1_test.c **** int componentID(int);
  15:stage1_test.c **** int detectProblems(int*);
  16:stage1_test.c **** int detectShort(int,int);
  17:stage1_test.c **** int detectShortsAll();
  18:stage1_test.c **** int readADC(int);
  19:stage1_test.c **** void writeGPIO(int,int);
  20:stage1_test.c **** int readGPIO(int);
  21:stage1_test.c **** void setDirGPIO(int,int);
  22:stage1_test.c **** 
  23:stage1_test.c **** int main (void) {
  24:stage1_test.c **** 	//setDirGPIO(7,0);
  25:stage1_test.c **** 	//writeGPIO(7,1);
  26:stage1_test.c **** 	int adc_value, i, counter;
  27:stage1_test.c **** 	int test_pins[5] = {TEST1,TEST2,TEST3,TEST4,TEST5};
  28:stage1_test.c **** 	printf("pins: %d, %d, %d, %d, %d\n",test_pins[0],test_pins[1],
  29:stage1_test.c **** 		test_pins[2],test_pins[3],test_pins[4]);
  30:stage1_test.c **** 	counter = 0;
  31:stage1_test.c **** 	struct timespec time_des;
ARM GAS  /tmp/ccPZc5IS.s 			page 2


  32:stage1_test.c **** 	struct timespec time_des_test;
  33:stage1_test.c **** 	time_des.tv_sec = 0;
  34:stage1_test.c **** 	time_des.tv_nsec = 1000000; //10ms
  35:stage1_test.c **** 	time_des_test.tv_sec = 0;
  36:stage1_test.c **** 	time_des_test.tv_nsec = 10000000;
  37:stage1_test.c **** 	while (1) {
  38:stage1_test.c **** 		if (readGPIO(BUTTON)) {
  39:stage1_test.c **** 			/*setDirGPIO(2,0);
  40:stage1_test.c **** 			setDirGPIO(15,1);
  41:stage1_test.c **** 			writeGPIO(2,1);
  42:stage1_test.c **** 			nanosleep(&time_des,NULL);
  43:stage1_test.c **** 			int component = componentID(readADC(0));
  44:stage1_test.c **** 			if (component == 0) {
  45:stage1_test.c **** 				setDirGPIO(2,1);
  46:stage1_test.c **** 				setDirGPIO(15,0);
  47:stage1_test.c **** 				writeGPIO(15,1);
  48:stage1_test.c **** 				nanosleep(&time_des_test,NULL);
  49:stage1_test.c **** 				if (readGPIO(2)) {component = 5;}
  50:stage1_test.c **** 				else {component = 3;}
  51:stage1_test.c **** 			}*/
  52:stage1_test.c **** 			int component[5];
  53:stage1_test.c **** 			component[0] = testComponent(TEST1,&time_des); 
  54:stage1_test.c **** 			component[1] = testComponent(TEST2,&time_des); 
  55:stage1_test.c **** 			component[2] = testComponent(TEST3,&time_des); 
  56:stage1_test.c **** 			component[3] = testComponent(TEST4,&time_des); 
  57:stage1_test.c **** 			component[4] = testComponent(TEST5,&time_des); 
  58:stage1_test.c **** 			int problem = detectProblems(component);
  59:stage1_test.c **** 			if (problem == 3)
  60:stage1_test.c **** 				printf("Probe is not fully engaged and "
  61:stage1_test.c **** 					"some test leads are shorted.\n");
  62:stage1_test.c **** 			else if (problem == 2)
  63:stage1_test.c **** 				printf("Probe is not fully engaged.\n");
  64:stage1_test.c **** 			else if (problem == 1)
  65:stage1_test.c **** 				printf("Some test leads are shorted.\n");
  66:stage1_test.c **** 			else if (problem == 0) {
  67:stage1_test.c **** 				printf("Test is acceptable.\n");
  68:stage1_test.c **** 				int j;
  69:stage1_test.c **** 				for (j=0; j<5; j++) {
  70:stage1_test.c **** 					printf("%d: ",j+1);
  71:stage1_test.c **** 					switch (component[j]) {
  72:stage1_test.c **** 						case 0:
  73:stage1_test.c **** 							break;
  74:stage1_test.c **** 						case 1:
  75:stage1_test.c **** 							printf("Wire\n");
  76:stage1_test.c **** 							break;
  77:stage1_test.c **** 						case 2:
  78:stage1_test.c **** 							printf("Resistor\n");
  79:stage1_test.c **** 							break;
  80:stage1_test.c **** 						case 3:
  81:stage1_test.c **** 							printf("Capacitor\n");
  82:stage1_test.c **** 							break;
  83:stage1_test.c **** 						case 4:
  84:stage1_test.c **** 							printf("Inductor\n");
  85:stage1_test.c **** 							break;
  86:stage1_test.c **** 						case 5:
  87:stage1_test.c **** 							printf("Diode\n");
  88:stage1_test.c **** 							break;
ARM GAS  /tmp/ccPZc5IS.s 			page 3


  89:stage1_test.c **** 					}	
  90:stage1_test.c **** 				}
  91:stage1_test.c **** 				printf("Code: %d %d %d %d %d\n",component[0], 
  92:stage1_test.c **** 					component[1],component[2],
  93:stage1_test.c **** 					component[3],component[4]);
  94:stage1_test.c **** 			}
  95:stage1_test.c **** 			//writeGPIO(2,0);
  96:stage1_test.c **** 		}
  97:stage1_test.c **** 		//adc_value = readADC(0);
  98:stage1_test.c **** 		//printf("\rAIN0: %d mV      ",adc_value);
  99:stage1_test.c **** 		nanosleep(&time_des,NULL);
 100:stage1_test.c **** 		//writeGPIO(7,readGPIO(14));
 101:stage1_test.c **** 		//if (readGPIO(20)) break;
 102:stage1_test.c **** 	}
 103:stage1_test.c **** 	printf("\n");
 104:stage1_test.c **** 	//writeGPIO(7,0);
 105:stage1_test.c **** 	return 0;
 106:stage1_test.c **** }
 107:stage1_test.c **** 
 108:stage1_test.c **** int testComponent(int gpio, struct timespec *time_des) {
 109:stage1_test.c **** 	setDirGPIO(TEST1,1);
 110:stage1_test.c **** 	setDirGPIO(TEST2,1);
 111:stage1_test.c **** 	setDirGPIO(TEST3,1);
 112:stage1_test.c **** 	setDirGPIO(TEST4,1);
 113:stage1_test.c **** 	setDirGPIO(TEST5,1);
 114:stage1_test.c **** 	setDirGPIO(TEST6,1);
 115:stage1_test.c **** 
 116:stage1_test.c **** 	setDirGPIO(gpio,0);
 117:stage1_test.c **** 	writeGPIO(gpio,1);
 118:stage1_test.c **** 
 119:stage1_test.c **** 	nanosleep(time_des,NULL);
 120:stage1_test.c **** 	int component = componentID(readADC(0));
 121:stage1_test.c **** 	writeGPIO(gpio,0);
 122:stage1_test.c **** 	if (component == 0) {
 123:stage1_test.c **** 		setDirGPIO(gpio,1);
 124:stage1_test.c **** 		setDirGPIO(TEST6,0);
 125:stage1_test.c **** 		writeGPIO(TEST6,1);
 126:stage1_test.c **** 		nanosleep(time_des,NULL);
 127:stage1_test.c **** 		if (readGPIO(gpio)) {component = 5;}
 128:stage1_test.c **** 		else {component = 3;}
 129:stage1_test.c **** 		writeGPIO(TEST6,0);
 130:stage1_test.c **** 	}
 131:stage1_test.c **** 	setDirGPIO(TEST6,1);
 132:stage1_test.c **** 	return component;
 133:stage1_test.c **** }
 134:stage1_test.c **** 
 135:stage1_test.c **** int componentID(int mV) {
  27              		.loc 1 135 0
  28              		.cfi_startproc
  29              		@ args = 0, pretend = 0, frame = 0
  30              		@ frame_needed = 0, uses_anonymous_args = 0
  31              		@ link register save eliminated.
  32              	.LVL0:
 136:stage1_test.c **** 	if (mV < 50) return 0;
 137:stage1_test.c **** 	else if ( (mV > 120) && (mV < 275) ) return 2;
  33              		.loc 1 137 0
  34 0000 A0F17903 		sub	r3, r0, #121
ARM GAS  /tmp/ccPZc5IS.s 			page 4


  35 0004 992B     		cmp	r3, #153
  36 0006 01D8     		bhi	.L7
  37 0008 0220     		movs	r0, #2
  38              	.LVL1:
  39 000a 7047     		bx	lr
  40              	.LVL2:
  41              	.L7:
 138:stage1_test.c **** 	else if ( (mV > 900) && (mV < 1100) ) return 4;
  42              		.loc 1 138 0
  43 000c 6FF46173 		mvn	r3, #900
  44 0010 C318     		adds	r3, r0, r3
  45 0012 C62B     		cmp	r3, #198
  46 0014 01D8     		bhi	.L8
  47 0016 0420     		movs	r0, #4
  48              	.LVL3:
  49 0018 7047     		bx	lr
  50              	.LVL4:
  51              	.L8:
 139:stage1_test.c **** 	else if ( (mV > 1350) && (mV < 1450) ) return 5;
  52              		.loc 1 139 0
  53 001a A0F24753 		subw	r3, r0, #1351
  54 001e 622B     		cmp	r3, #98
  55 0020 01D8     		bhi	.L9
  56 0022 0520     		movs	r0, #5
  57              	.LVL5:
 140:stage1_test.c **** 	else if (mV > 1700) return 1;
 141:stage1_test.c **** 	else return 0;
 142:stage1_test.c **** }
  58              		.loc 1 142 0
  59 0024 7047     		bx	lr
  60              	.LVL6:
  61              	.L9:
 140:stage1_test.c **** 	else if (mV > 1700) return 1;
  62              		.loc 1 140 0
  63 0026 40F2A463 		movw	r3, #1700
  64 002a 9842     		cmp	r0, r3
  65 002c D4BF     		ite	le
  66 002e 0020     		movle	r0, #0
  67              	.LVL7:
  68 0030 0120     		movgt	r0, #1
  69 0032 7047     		bx	lr
  70              		.cfi_endproc
  71              	.LFE32:
  72              		.size	componentID.part.0, .-componentID.part.0
  73              		.align	2
  74              		.global	componentID
  75              		.thumb
  76              		.thumb_func
  77              		.type	componentID, %function
  78              	componentID:
  79              	.LFB25:
 135:stage1_test.c **** 	if (mV < 50) return 0;
  80              		.loc 1 135 0
  81              		.cfi_startproc
  82              		@ args = 0, pretend = 0, frame = 0
  83              		@ frame_needed = 0, uses_anonymous_args = 0
  84              		@ link register save eliminated.
ARM GAS  /tmp/ccPZc5IS.s 			page 5


  85              	.LVL8:
 136:stage1_test.c **** 	else if ( (mV > 120) && (mV < 275) ) return 2;
  86              		.loc 1 136 0
  87 0034 3128     		cmp	r0, #49
  88 0036 00DD     		ble	.L11
  89 0038 E2E7     		b	componentID.part.0
  90              	.LVL9:
  91              	.L11:
  92              		.loc 1 142 0
  93 003a 0020     		movs	r0, #0
  94              	.LVL10:
  95 003c 7047     		bx	lr
  96              		.cfi_endproc
  97              	.LFE25:
  98              		.size	componentID, .-componentID
  99 003e 00BF     		.align	2
 100              		.global	readADC
 101              		.thumb
 102              		.thumb_func
 103              		.type	readADC, %function
 104              	readADC:
 105              	.LFB28:
 143:stage1_test.c **** 
 144:stage1_test.c **** int detectProblems(int *components) {
 145:stage1_test.c **** 	int i,j;
 146:stage1_test.c **** 	int opens = 0;
 147:stage1_test.c **** 	int shorts = 0;
 148:stage1_test.c **** 	int test_gpios[5] = {TEST1,TEST2,TEST3,TEST4,TEST5};
 149:stage1_test.c **** 	int pins[5] = {TEST1,TEST2,TEST3,TEST4,TEST5};
 150:stage1_test.c **** 	for (i=0; i<5; i++) {
 151:stage1_test.c **** 		int x = pins[i];
 152:stage1_test.c **** 		int y = *(pins+i);
 153:stage1_test.c **** 		for (j=0; j<5; j++) {
 154:stage1_test.c **** 			if ( (i != j) && (components[i] == components[j]) ) {
 155:stage1_test.c **** 				if (components[i] == 3) {
 156:stage1_test.c **** 					if (detectShort(test_gpios[i],
 157:stage1_test.c **** 						test_gpios[j]))
 158:stage1_test.c **** 						 shorts++;
 159:stage1_test.c **** 					else 
 160:stage1_test.c **** 						opens++;
 161:stage1_test.c **** 				}
 162:stage1_test.c **** 				else
 163:stage1_test.c **** 					shorts++;
 164:stage1_test.c **** 			}
 165:stage1_test.c **** 		}
 166:stage1_test.c **** 	}
 167:stage1_test.c **** 	if (shorts && opens) return 3;
 168:stage1_test.c **** 	else if (opens && !shorts) return 2;
 169:stage1_test.c **** 	else if (shorts && !opens) return 1;
 170:stage1_test.c **** 	else return 0;
 171:stage1_test.c **** }
 172:stage1_test.c **** 
 173:stage1_test.c **** int detectShort(int gpio1, int gpio2) {
 174:stage1_test.c **** 	int shorted = 0;
 175:stage1_test.c **** 	setDirGPIO(gpio1,0);
 176:stage1_test.c **** 	writeGPIO(gpio1,1);
 177:stage1_test.c **** 	if (readGPIO(gpio2)) {
ARM GAS  /tmp/ccPZc5IS.s 			page 6


 178:stage1_test.c **** 		shorted = 1;
 179:stage1_test.c **** 		//printf("GPIOs %d and %d are shorted together!\n",gpio1,gpio2);
 180:stage1_test.c **** 	}
 181:stage1_test.c **** 	writeGPIO(gpio1,0);
 182:stage1_test.c **** 	setDirGPIO(gpio1,1);
 183:stage1_test.c **** 	return shorted;
 184:stage1_test.c **** }
 185:stage1_test.c **** 
 186:stage1_test.c **** int readADC(int channel) {
 106              		.loc 1 186 0
 107              		.cfi_startproc
 108              		@ args = 0, pretend = 0, frame = 120
 109              		@ frame_needed = 0, uses_anonymous_args = 0
 110              	.LVL11:
 111 0040 10B5     		push	{r4, lr}
 112              		.cfi_def_cfa_offset 8
 113              		.cfi_offset 4, -8
 114              		.cfi_offset 14, -4
 187:stage1_test.c **** 	FILE *an_file;
 188:stage1_test.c **** 	char file_path[100] = "/sys/devices/platform/ocp/44e0d000.tscadc/TI-am335x-adc/iio:device0/in_volt
 115              		.loc 1 188 0
 116 0042 40F20001 		movw	r1, #:lower16:.LANCHOR0
 186:stage1_test.c **** 	FILE *an_file;
 117              		.loc 1 186 0
 118 0046 9EB0     		sub	sp, sp, #120
 119              		.cfi_def_cfa_offset 128
 186:stage1_test.c **** 	FILE *an_file;
 120              		.loc 1 186 0
 121 0048 0446     		mov	r4, r0
 122              		.loc 1 188 0
 123 004a C0F20001 		movt	r1, #:upper16:.LANCHOR0
 124 004e 05A8     		add	r0, sp, #20
 125              	.LVL12:
 126 0050 4F22     		movs	r2, #79
 127 0052 FFF7FEFF 		bl	memcpy
 128              	.LVL13:
 129 0056 0DF16300 		add	r0, sp, #99
 130 005a 0021     		movs	r1, #0
 131 005c 1522     		movs	r2, #21
 132 005e FFF7FEFF 		bl	memset
 133              	.LVL14:
 189:stage1_test.c **** 	char channel_str[10];
 190:stage1_test.c **** 	sprintf(channel_str,"%d_raw",channel);
 134              		.loc 1 190 0
 135 0062 40F20001 		movw	r1, #:lower16:.LC2
 136 0066 2246     		mov	r2, r4
 137 0068 02A8     		add	r0, sp, #8
 138 006a C0F20001 		movt	r1, #:upper16:.LC2
 139 006e FFF7FEFF 		bl	sprintf
 140              	.LVL15:
 191:stage1_test.c **** 	strcat(file_path,channel_str);
 141              		.loc 1 191 0
 142 0072 02A9     		add	r1, sp, #8
 143 0074 05A8     		add	r0, sp, #20
 144 0076 FFF7FEFF 		bl	strcat
 145              	.LVL16:
 192:stage1_test.c **** 
ARM GAS  /tmp/ccPZc5IS.s 			page 7


 193:stage1_test.c **** 	int adc_value;
 194:stage1_test.c **** 	an_file = fopen(file_path, "r");
 146              		.loc 1 194 0
 147 007a 40F20001 		movw	r1, #:lower16:.LC3
 148 007e 05A8     		add	r0, sp, #20
 149 0080 C0F20001 		movt	r1, #:upper16:.LC3
 150 0084 FFF7FEFF 		bl	fopen
 151              	.LVL17:
 195:stage1_test.c **** 	//fseek(an_value,0,SEEK_SET);
 196:stage1_test.c **** 	fscanf(an_file,"%d",&adc_value);
 152              		.loc 1 196 0
 153 0088 40F20001 		movw	r1, #:lower16:.LC4
 154 008c 01AA     		add	r2, sp, #4
 155 008e C0F20001 		movt	r1, #:upper16:.LC4
 194:stage1_test.c **** 	//fseek(an_value,0,SEEK_SET);
 156              		.loc 1 194 0
 157 0092 0446     		mov	r4, r0
 158              	.LVL18:
 159              		.loc 1 196 0
 160 0094 FFF7FEFF 		bl	__isoc99_fscanf
 161              	.LVL19:
 197:stage1_test.c **** 	fclose(an_file);
 162              		.loc 1 197 0
 163 0098 2046     		mov	r0, r4
 164 009a FFF7FEFF 		bl	fclose
 165              	.LVL20:
 198:stage1_test.c **** 	
 199:stage1_test.c **** 	//printf("value: %d,",adc_value);
 200:stage1_test.c **** 	adc_value = (int) (((float)adc_value / 4095.0) * 1800);
 166              		.loc 1 200 0
 167 009e DDED016A 		flds	s13, [sp, #4]	@ int
 168 00a2 9FED097B 		fldd	d7, .L14
 169 00a6 B8EEE66A 		fsitos	s12, s13
 170 00aa 9FED095B 		fldd	d5, .L14+8
 171 00ae B7EEC66A 		fcvtds	d6, s12
 172 00b2 86EE077B 		fdivd	d7, d6, d7
 173 00b6 27EE057B 		fmuld	d7, d7, d5
 174              	.LVL21:
 201:stage1_test.c **** 	//returns actual voltage in mV (lose resolution, change to out of 4096)
 202:stage1_test.c **** 	//printf("%d\n",adc_value);
 203:stage1_test.c **** 	return adc_value;
 204:stage1_test.c **** }
 175              		.loc 1 204 0
 176 00ba FDEEC77B 		ftosizd	s15, d7
 177              	.LVL22:
 178 00be 17EE900A 		fmrs	r0, s15	@ int
 179 00c2 1EB0     		add	sp, sp, #120
 180              		.cfi_def_cfa_offset 8
 181              		@ sp needed
 182 00c4 10BD     		pop	{r4, pc}
 183              	.LVL23:
 184              	.L15:
 185 00c6 00BF     		.align	3
 186              	.L14:
 187 00c8 00000000 		.word	0
 188 00cc 00FEAF40 		.word	1085275648
 189 00d0 00000000 		.word	0
ARM GAS  /tmp/ccPZc5IS.s 			page 8


 190 00d4 00209C40 		.word	1083973632
 191              		.cfi_endproc
 192              	.LFE28:
 193              		.size	readADC, .-readADC
 194              		.align	2
 195              		.global	writeGPIO
 196              		.thumb
 197              		.thumb_func
 198              		.type	writeGPIO, %function
 199              	writeGPIO:
 200              	.LFB29:
 205:stage1_test.c **** 
 206:stage1_test.c **** void writeGPIO(int pin_number, int value) {
 201              		.loc 1 206 0
 202              		.cfi_startproc
 203              		@ args = 0, pretend = 0, frame = 64
 204              		@ frame_needed = 0, uses_anonymous_args = 0
 205              	.LVL24:
 206 00d8 F0B5     		push	{r4, r5, r6, r7, lr}
 207              		.cfi_def_cfa_offset 20
 208              		.cfi_offset 4, -20
 209              		.cfi_offset 5, -16
 210              		.cfi_offset 6, -12
 211              		.cfi_offset 7, -8
 212              		.cfi_offset 14, -4
 213 00da 0746     		mov	r7, r0
 207:stage1_test.c **** 	FILE *f_gpio;
 208:stage1_test.c **** 	char file_path[50] = "/sys/class/gpio/gpio";
 214              		.loc 1 208 0
 215 00dc 184D     		ldr	r5, .L18
 206:stage1_test.c **** 	FILE *f_gpio;
 216              		.loc 1 206 0
 217 00de 0E46     		mov	r6, r1
 218 00e0 91B0     		sub	sp, sp, #68
 219              		.cfi_def_cfa_offset 88
 220              		.loc 1 208 0
 221 00e2 03AC     		add	r4, sp, #12
 222 00e4 0FCD     		ldmia	r5!, {r0, r1, r2, r3}
 223              	.LVL25:
 224 00e6 0FC4     		stmia	r4!, {r0, r1, r2, r3}
 225 00e8 1D22     		movs	r2, #29
 226 00ea 95E80300 		ldmia	r5, {r0, r1}
 227 00ee 44F8040B 		str	r0, [r4], #4
 228 00f2 0DF12100 		add	r0, sp, #33
 229 00f6 2170     		strb	r1, [r4]
 230 00f8 0021     		movs	r1, #0
 231 00fa FFF7FEFF 		bl	memset
 232              	.LVL26:
 209:stage1_test.c **** 	char file_end[9];
 210:stage1_test.c **** 	sprintf(file_end,"%d/value",pin_number);
 233              		.loc 1 210 0
 234 00fe 40F20001 		movw	r1, #:lower16:.LC6
 235 0102 3A46     		mov	r2, r7
 236 0104 6846     		mov	r0, sp
 237 0106 C0F20001 		movt	r1, #:upper16:.LC6
 238 010a FFF7FEFF 		bl	sprintf
 239              	.LVL27:
ARM GAS  /tmp/ccPZc5IS.s 			page 9


 211:stage1_test.c **** 	strcat(file_path,file_end);
 240              		.loc 1 211 0
 241 010e 6946     		mov	r1, sp
 242 0110 03A8     		add	r0, sp, #12
 243 0112 FFF7FEFF 		bl	strcat
 244              	.LVL28:
 212:stage1_test.c **** 	f_gpio = fopen(file_path,"w");
 245              		.loc 1 212 0
 246 0116 40F20001 		movw	r1, #:lower16:.LC7
 247 011a 03A8     		add	r0, sp, #12
 248 011c C0F20001 		movt	r1, #:upper16:.LC7
 249 0120 FFF7FEFF 		bl	fopen
 250              	.LVL29:
 213:stage1_test.c **** 	fprintf(f_gpio,"%d",value);
 251              		.loc 1 213 0
 252 0124 40F20001 		movw	r1, #:lower16:.LC4
 253 0128 3246     		mov	r2, r6
 254 012a C0F20001 		movt	r1, #:upper16:.LC4
 212:stage1_test.c **** 	f_gpio = fopen(file_path,"w");
 255              		.loc 1 212 0
 256 012e 0446     		mov	r4, r0
 257              	.LVL30:
 258              		.loc 1 213 0
 259 0130 FFF7FEFF 		bl	fprintf
 260              	.LVL31:
 214:stage1_test.c **** 	fclose(f_gpio);
 261              		.loc 1 214 0
 262 0134 2046     		mov	r0, r4
 263 0136 FFF7FEFF 		bl	fclose
 264              	.LVL32:
 215:stage1_test.c **** }
 265              		.loc 1 215 0
 266 013a 11B0     		add	sp, sp, #68
 267              		.cfi_def_cfa_offset 20
 268              		@ sp needed
 269 013c F0BD     		pop	{r4, r5, r6, r7, pc}
 270              	.LVL33:
 271              	.L19:
 272 013e 00BF     		.align	2
 273              	.L18:
 274 0140 64000000 		.word	.LANCHOR0+100
 275              		.cfi_endproc
 276              	.LFE29:
 277              		.size	writeGPIO, .-writeGPIO
 278              		.align	2
 279              		.global	readGPIO
 280              		.thumb
 281              		.thumb_func
 282              		.type	readGPIO, %function
 283              	readGPIO:
 284              	.LFB30:
 216:stage1_test.c **** 
 217:stage1_test.c **** int readGPIO(int pin_number) {
 285              		.loc 1 217 0
 286              		.cfi_startproc
 287              		@ args = 0, pretend = 0, frame = 72
 288              		@ frame_needed = 0, uses_anonymous_args = 0
ARM GAS  /tmp/ccPZc5IS.s 			page 10


 289              	.LVL34:
 290 0144 70B5     		push	{r4, r5, r6, lr}
 291              		.cfi_def_cfa_offset 16
 292              		.cfi_offset 4, -16
 293              		.cfi_offset 5, -12
 294              		.cfi_offset 6, -8
 295              		.cfi_offset 14, -4
 296 0146 0646     		mov	r6, r0
 218:stage1_test.c **** 	int gpio_value;
 219:stage1_test.c **** 	FILE *f_gpio;
 220:stage1_test.c **** 	char file_path[50] = "/sys/class/gpio/gpio";
 297              		.loc 1 220 0
 298 0148 184D     		ldr	r5, .L22
 217:stage1_test.c **** 	int gpio_value;
 299              		.loc 1 217 0
 300 014a 92B0     		sub	sp, sp, #72
 301              		.cfi_def_cfa_offset 88
 302              		.loc 1 220 0
 303 014c 05AC     		add	r4, sp, #20
 304 014e 0FCD     		ldmia	r5!, {r0, r1, r2, r3}
 305              	.LVL35:
 306 0150 0FC4     		stmia	r4!, {r0, r1, r2, r3}
 307 0152 1D22     		movs	r2, #29
 308 0154 95E80300 		ldmia	r5, {r0, r1}
 309 0158 44F8040B 		str	r0, [r4], #4
 310 015c 0DF12900 		add	r0, sp, #41
 311 0160 2170     		strb	r1, [r4]
 312 0162 0021     		movs	r1, #0
 313 0164 FFF7FEFF 		bl	memset
 314              	.LVL36:
 221:stage1_test.c **** 	char file_end[9];
 222:stage1_test.c **** 	sprintf(file_end,"%d/value",pin_number);
 315              		.loc 1 222 0
 316 0168 40F20001 		movw	r1, #:lower16:.LC6
 317 016c 3246     		mov	r2, r6
 318 016e 02A8     		add	r0, sp, #8
 319 0170 C0F20001 		movt	r1, #:upper16:.LC6
 320 0174 FFF7FEFF 		bl	sprintf
 321              	.LVL37:
 223:stage1_test.c **** 	strcat(file_path,file_end);
 322              		.loc 1 223 0
 323 0178 02A9     		add	r1, sp, #8
 324 017a 05A8     		add	r0, sp, #20
 325 017c FFF7FEFF 		bl	strcat
 326              	.LVL38:
 224:stage1_test.c **** 	f_gpio = fopen(file_path,"r");
 327              		.loc 1 224 0
 328 0180 40F20001 		movw	r1, #:lower16:.LC3
 329 0184 05A8     		add	r0, sp, #20
 330 0186 C0F20001 		movt	r1, #:upper16:.LC3
 331 018a FFF7FEFF 		bl	fopen
 332              	.LVL39:
 225:stage1_test.c **** 	fscanf(f_gpio,"%d",&gpio_value);
 333              		.loc 1 225 0
 334 018e 40F20001 		movw	r1, #:lower16:.LC4
 335 0192 01AA     		add	r2, sp, #4
 336 0194 C0F20001 		movt	r1, #:upper16:.LC4
ARM GAS  /tmp/ccPZc5IS.s 			page 11


 224:stage1_test.c **** 	f_gpio = fopen(file_path,"r");
 337              		.loc 1 224 0
 338 0198 0446     		mov	r4, r0
 339              	.LVL40:
 340              		.loc 1 225 0
 341 019a FFF7FEFF 		bl	__isoc99_fscanf
 342              	.LVL41:
 226:stage1_test.c **** 	fclose(f_gpio);
 343              		.loc 1 226 0
 344 019e 2046     		mov	r0, r4
 345 01a0 FFF7FEFF 		bl	fclose
 346              	.LVL42:
 227:stage1_test.c **** 	return gpio_value;
 228:stage1_test.c **** }
 347              		.loc 1 228 0
 348 01a4 0198     		ldr	r0, [sp, #4]
 349 01a6 12B0     		add	sp, sp, #72
 350              		.cfi_def_cfa_offset 16
 351              		@ sp needed
 352 01a8 70BD     		pop	{r4, r5, r6, pc}
 353              	.LVL43:
 354              	.L23:
 355 01aa 00BF     		.align	2
 356              	.L22:
 357 01ac 64000000 		.word	.LANCHOR0+100
 358              		.cfi_endproc
 359              	.LFE30:
 360              		.size	readGPIO, .-readGPIO
 361              		.align	2
 362              		.global	setDirGPIO
 363              		.thumb
 364              		.thumb_func
 365              		.type	setDirGPIO, %function
 366              	setDirGPIO:
 367              	.LFB31:
 229:stage1_test.c **** 
 230:stage1_test.c **** void setDirGPIO(int pin_number, int direction) {
 368              		.loc 1 230 0
 369              		.cfi_startproc
 370              		@ args = 0, pretend = 0, frame = 72
 371              		@ frame_needed = 0, uses_anonymous_args = 0
 372              	.LVL44:
 373 01b0 F0B5     		push	{r4, r5, r6, r7, lr}
 374              		.cfi_def_cfa_offset 20
 375              		.cfi_offset 4, -20
 376              		.cfi_offset 5, -16
 377              		.cfi_offset 6, -12
 378              		.cfi_offset 7, -8
 379              		.cfi_offset 14, -4
 380 01b2 0746     		mov	r7, r0
 231:stage1_test.c **** 	FILE *f_gpio;
 232:stage1_test.c **** 	char file_path[50] = "/sys/class/gpio/gpio";
 381              		.loc 1 232 0
 382 01b4 204D     		ldr	r5, .L29
 230:stage1_test.c **** 	FILE *f_gpio;
 383              		.loc 1 230 0
 384 01b6 0E46     		mov	r6, r1
ARM GAS  /tmp/ccPZc5IS.s 			page 12


 385 01b8 93B0     		sub	sp, sp, #76
 386              		.cfi_def_cfa_offset 96
 387              		.loc 1 232 0
 388 01ba 05AC     		add	r4, sp, #20
 389 01bc 0FCD     		ldmia	r5!, {r0, r1, r2, r3}
 390              	.LVL45:
 391 01be 0FC4     		stmia	r4!, {r0, r1, r2, r3}
 392 01c0 1D22     		movs	r2, #29
 393 01c2 95E80300 		ldmia	r5, {r0, r1}
 394 01c6 44F8040B 		str	r0, [r4], #4
 395 01ca 0DF12900 		add	r0, sp, #41
 396 01ce 2170     		strb	r1, [r4]
 397 01d0 0021     		movs	r1, #0
 398 01d2 FFF7FEFF 		bl	memset
 399              	.LVL46:
 233:stage1_test.c **** 	char file_end[15];
 234:stage1_test.c **** 	sprintf(file_end,"%d/direction",pin_number);
 400              		.loc 1 234 0
 401 01d6 40F20001 		movw	r1, #:lower16:.LC8
 402 01da 3A46     		mov	r2, r7
 403 01dc C0F20001 		movt	r1, #:upper16:.LC8
 404 01e0 01A8     		add	r0, sp, #4
 405 01e2 FFF7FEFF 		bl	sprintf
 406              	.LVL47:
 235:stage1_test.c **** 	strcat(file_path,file_end);
 407              		.loc 1 235 0
 408 01e6 01A9     		add	r1, sp, #4
 409 01e8 05A8     		add	r0, sp, #20
 410 01ea FFF7FEFF 		bl	strcat
 411              	.LVL48:
 236:stage1_test.c **** 	f_gpio = fopen(file_path,"w");
 412              		.loc 1 236 0
 413 01ee 40F20001 		movw	r1, #:lower16:.LC7
 414 01f2 05A8     		add	r0, sp, #20
 415 01f4 C0F20001 		movt	r1, #:upper16:.LC7
 416 01f8 FFF7FEFF 		bl	fopen
 417              	.LVL49:
 418 01fc 0446     		mov	r4, r0
 419              	.LVL50:
 237:stage1_test.c **** 	if (direction) fprintf(f_gpio,"in");
 420              		.loc 1 237 0
 421 01fe 6EB9     		cbnz	r6, .L28
 238:stage1_test.c **** 	else fprintf(f_gpio,"out");
 422              		.loc 1 238 0
 423 0200 40F20000 		movw	r0, #:lower16:.LC10
 424              	.LVL51:
 425 0204 0121     		movs	r1, #1
 426 0206 0322     		movs	r2, #3
 427 0208 2346     		mov	r3, r4
 428 020a C0F20000 		movt	r0, #:upper16:.LC10
 429 020e FFF7FEFF 		bl	fwrite
 430              	.LVL52:
 239:stage1_test.c **** 	fclose(f_gpio);
 431              		.loc 1 239 0
 432 0212 2046     		mov	r0, r4
 433 0214 FFF7FEFF 		bl	fclose
 434              	.LVL53:
ARM GAS  /tmp/ccPZc5IS.s 			page 13


 240:stage1_test.c **** }
 435              		.loc 1 240 0
 436 0218 13B0     		add	sp, sp, #76
 437              		.cfi_remember_state
 438              		.cfi_def_cfa_offset 20
 439              		@ sp needed
 440 021a F0BD     		pop	{r4, r5, r6, r7, pc}
 441              	.LVL54:
 442              	.L28:
 443              		.cfi_restore_state
 237:stage1_test.c **** 	else fprintf(f_gpio,"out");
 444              		.loc 1 237 0 discriminator 1
 445 021c 40F20000 		movw	r0, #:lower16:.LC9
 446              	.LVL55:
 447 0220 0121     		movs	r1, #1
 448 0222 0222     		movs	r2, #2
 449 0224 2346     		mov	r3, r4
 450 0226 C0F20000 		movt	r0, #:upper16:.LC9
 451 022a FFF7FEFF 		bl	fwrite
 452              	.LVL56:
 239:stage1_test.c **** 	fclose(f_gpio);
 453              		.loc 1 239 0 discriminator 1
 454 022e 2046     		mov	r0, r4
 455 0230 FFF7FEFF 		bl	fclose
 456              	.LVL57:
 457              		.loc 1 240 0 discriminator 1
 458 0234 13B0     		add	sp, sp, #76
 459              		.cfi_def_cfa_offset 20
 460              		@ sp needed
 461 0236 F0BD     		pop	{r4, r5, r6, r7, pc}
 462              	.LVL58:
 463              	.L30:
 464              		.align	2
 465              	.L29:
 466 0238 64000000 		.word	.LANCHOR0+100
 467              		.cfi_endproc
 468              	.LFE31:
 469              		.size	setDirGPIO, .-setDirGPIO
 470              		.align	2
 471              		.global	testComponent
 472              		.thumb
 473              		.thumb_func
 474              		.type	testComponent, %function
 475              	testComponent:
 476              	.LFB24:
 108:stage1_test.c **** 	setDirGPIO(TEST1,1);
 477              		.loc 1 108 0
 478              		.cfi_startproc
 479              		@ args = 0, pretend = 0, frame = 0
 480              		@ frame_needed = 0, uses_anonymous_args = 0
 481              	.LVL59:
 482 023c 70B5     		push	{r4, r5, r6, lr}
 483              		.cfi_def_cfa_offset 16
 484              		.cfi_offset 4, -16
 485              		.cfi_offset 5, -12
 486              		.cfi_offset 6, -8
 487              		.cfi_offset 14, -4
ARM GAS  /tmp/ccPZc5IS.s 			page 14


 108:stage1_test.c **** 	setDirGPIO(TEST1,1);
 488              		.loc 1 108 0
 489 023e 0446     		mov	r4, r0
 490 0240 0E46     		mov	r6, r1
 109:stage1_test.c **** 	setDirGPIO(TEST2,1);
 491              		.loc 1 109 0
 492 0242 0F20     		movs	r0, #15
 493              	.LVL60:
 494 0244 0121     		movs	r1, #1
 495              	.LVL61:
 496 0246 FFF7FEFF 		bl	setDirGPIO
 497              	.LVL62:
 110:stage1_test.c **** 	setDirGPIO(TEST3,1);
 498              		.loc 1 110 0
 499 024a 7320     		movs	r0, #115
 500 024c 0121     		movs	r1, #1
 501 024e FFF7FEFF 		bl	setDirGPIO
 502              	.LVL63:
 111:stage1_test.c **** 	setDirGPIO(TEST4,1);
 503              		.loc 1 111 0
 504 0252 0220     		movs	r0, #2
 505 0254 0121     		movs	r1, #1
 506 0256 FFF7FEFF 		bl	setDirGPIO
 507              	.LVL64:
 112:stage1_test.c **** 	setDirGPIO(TEST5,1);
 508              		.loc 1 112 0
 509 025a 3120     		movs	r0, #49
 510 025c 0121     		movs	r1, #1
 511 025e FFF7FEFF 		bl	setDirGPIO
 512              	.LVL65:
 113:stage1_test.c **** 	setDirGPIO(TEST6,1);
 513              		.loc 1 113 0
 514 0262 0320     		movs	r0, #3
 515 0264 0121     		movs	r1, #1
 516 0266 FFF7FEFF 		bl	setDirGPIO
 517              	.LVL66:
 114:stage1_test.c **** 
 518              		.loc 1 114 0
 519 026a 0E20     		movs	r0, #14
 520 026c 0121     		movs	r1, #1
 521 026e FFF7FEFF 		bl	setDirGPIO
 522              	.LVL67:
 116:stage1_test.c **** 	writeGPIO(gpio,1);
 523              		.loc 1 116 0
 524 0272 2046     		mov	r0, r4
 525 0274 0021     		movs	r1, #0
 526 0276 FFF7FEFF 		bl	setDirGPIO
 527              	.LVL68:
 117:stage1_test.c **** 
 528              		.loc 1 117 0
 529 027a 2046     		mov	r0, r4
 530 027c 0121     		movs	r1, #1
 531 027e FFF7FEFF 		bl	writeGPIO
 532              	.LVL69:
 119:stage1_test.c **** 	int component = componentID(readADC(0));
 533              		.loc 1 119 0
 534 0282 0021     		movs	r1, #0
ARM GAS  /tmp/ccPZc5IS.s 			page 15


 535 0284 3046     		mov	r0, r6
 536 0286 FFF7FEFF 		bl	nanosleep
 537              	.LVL70:
 120:stage1_test.c **** 	writeGPIO(gpio,0);
 538              		.loc 1 120 0
 539 028a 0020     		movs	r0, #0
 540 028c FFF7FEFF 		bl	readADC
 541              	.LVL71:
 542              	.LBB4:
 543              	.LBB5:
 136:stage1_test.c **** 	else if ( (mV > 120) && (mV < 275) ) return 2;
 544              		.loc 1 136 0
 545 0290 3128     		cmp	r0, #49
 546 0292 0DDD     		ble	.L32
 547 0294 FFF7B4FE 		bl	componentID.part.0
 548              	.LVL72:
 549              	.LBE5:
 550              	.LBE4:
 121:stage1_test.c **** 	if (component == 0) {
 551              		.loc 1 121 0
 552 0298 0021     		movs	r1, #0
 553              	.LBB7:
 554              	.LBB6:
 555 029a 0546     		mov	r5, r0
 556              	.LBE6:
 557              	.LBE7:
 558 029c 2046     		mov	r0, r4
 559 029e FFF7FEFF 		bl	writeGPIO
 560              	.LVL73:
 122:stage1_test.c **** 		setDirGPIO(gpio,1);
 561              		.loc 1 122 0
 562 02a2 4DB1     		cbz	r5, .L35
 563              	.L33:
 564              	.LVL74:
 131:stage1_test.c **** 	return component;
 565              		.loc 1 131 0
 566 02a4 0E20     		movs	r0, #14
 567 02a6 0121     		movs	r1, #1
 568 02a8 FFF7FEFF 		bl	setDirGPIO
 569              	.LVL75:
 133:stage1_test.c **** 
 570              		.loc 1 133 0
 571 02ac 2846     		mov	r0, r5
 572 02ae 70BD     		pop	{r4, r5, r6, pc}
 573              	.LVL76:
 574              	.L32:
 121:stage1_test.c **** 	if (component == 0) {
 575              		.loc 1 121 0
 576 02b0 2046     		mov	r0, r4
 577              	.LVL77:
 578 02b2 0021     		movs	r1, #0
 579 02b4 FFF7FEFF 		bl	writeGPIO
 580              	.LVL78:
 581              	.L35:
 123:stage1_test.c **** 		setDirGPIO(TEST6,0);
 582              		.loc 1 123 0
 583 02b8 2046     		mov	r0, r4
ARM GAS  /tmp/ccPZc5IS.s 			page 16


 584 02ba 0121     		movs	r1, #1
 585 02bc FFF7FEFF 		bl	setDirGPIO
 586              	.LVL79:
 124:stage1_test.c **** 		writeGPIO(TEST6,1);
 587              		.loc 1 124 0
 588 02c0 0E20     		movs	r0, #14
 589 02c2 0021     		movs	r1, #0
 590 02c4 FFF7FEFF 		bl	setDirGPIO
 591              	.LVL80:
 125:stage1_test.c **** 		nanosleep(time_des,NULL);
 592              		.loc 1 125 0
 593 02c8 0E20     		movs	r0, #14
 594 02ca 0121     		movs	r1, #1
 595 02cc FFF7FEFF 		bl	writeGPIO
 596              	.LVL81:
 126:stage1_test.c **** 		if (readGPIO(gpio)) {component = 5;}
 597              		.loc 1 126 0
 598 02d0 0021     		movs	r1, #0
 599 02d2 3046     		mov	r0, r6
 600 02d4 FFF7FEFF 		bl	nanosleep
 601              	.LVL82:
 127:stage1_test.c **** 		else {component = 3;}
 602              		.loc 1 127 0
 603 02d8 2046     		mov	r0, r4
 604 02da FFF7FEFF 		bl	readGPIO
 605              	.LVL83:
 129:stage1_test.c **** 	}
 606              		.loc 1 129 0
 607 02de 0021     		movs	r1, #0
 128:stage1_test.c **** 		writeGPIO(TEST6,0);
 608              		.loc 1 128 0
 609 02e0 8842     		cmp	r0, r1
 129:stage1_test.c **** 	}
 610              		.loc 1 129 0
 611 02e2 4FF00E00 		mov	r0, #14
 128:stage1_test.c **** 		writeGPIO(TEST6,0);
 612              		.loc 1 128 0
 613 02e6 14BF     		ite	ne
 614 02e8 0525     		movne	r5, #5
 615 02ea 0325     		moveq	r5, #3
 616              	.LVL84:
 129:stage1_test.c **** 	}
 617              		.loc 1 129 0
 618 02ec FFF7FEFF 		bl	writeGPIO
 619              	.LVL85:
 620 02f0 D8E7     		b	.L33
 621              		.cfi_endproc
 622              	.LFE24:
 623              		.size	testComponent, .-testComponent
 624 02f2 00BF     		.align	2
 625              		.global	detectShort
 626              		.thumb
 627              		.thumb_func
 628              		.type	detectShort, %function
 629              	detectShort:
 630              	.LFB27:
 173:stage1_test.c **** 	int shorted = 0;
ARM GAS  /tmp/ccPZc5IS.s 			page 17


 631              		.loc 1 173 0
 632              		.cfi_startproc
 633              		@ args = 0, pretend = 0, frame = 0
 634              		@ frame_needed = 0, uses_anonymous_args = 0
 635              	.LVL86:
 636 02f4 38B5     		push	{r3, r4, r5, lr}
 637              		.cfi_def_cfa_offset 16
 638              		.cfi_offset 3, -16
 639              		.cfi_offset 4, -12
 640              		.cfi_offset 5, -8
 641              		.cfi_offset 14, -4
 173:stage1_test.c **** 	int shorted = 0;
 642              		.loc 1 173 0
 643 02f6 0446     		mov	r4, r0
 644 02f8 0D46     		mov	r5, r1
 175:stage1_test.c **** 	writeGPIO(gpio1,1);
 645              		.loc 1 175 0
 646 02fa 0021     		movs	r1, #0
 647              	.LVL87:
 648 02fc FFF7FEFF 		bl	setDirGPIO
 649              	.LVL88:
 176:stage1_test.c **** 	if (readGPIO(gpio2)) {
 650              		.loc 1 176 0
 651 0300 2046     		mov	r0, r4
 652 0302 0121     		movs	r1, #1
 653 0304 FFF7FEFF 		bl	writeGPIO
 654              	.LVL89:
 177:stage1_test.c **** 		shorted = 1;
 655              		.loc 1 177 0
 656 0308 2846     		mov	r0, r5
 657 030a FFF7FEFF 		bl	readGPIO
 658              	.LVL90:
 181:stage1_test.c **** 	setDirGPIO(gpio1,1);
 659              		.loc 1 181 0
 660 030e 0021     		movs	r1, #0
 177:stage1_test.c **** 		shorted = 1;
 661              		.loc 1 177 0
 662 0310 0546     		mov	r5, r0
 663              	.LVL91:
 181:stage1_test.c **** 	setDirGPIO(gpio1,1);
 664              		.loc 1 181 0
 665 0312 2046     		mov	r0, r4
 666              	.LVL92:
 667 0314 FFF7FEFF 		bl	writeGPIO
 668              	.LVL93:
 182:stage1_test.c **** 	return shorted;
 669              		.loc 1 182 0
 670 0318 2046     		mov	r0, r4
 671 031a 0121     		movs	r1, #1
 672 031c FFF7FEFF 		bl	setDirGPIO
 673              	.LVL94:
 184:stage1_test.c **** 
 674              		.loc 1 184 0
 675 0320 281C     		adds	r0, r5, #0
 676 0322 18BF     		it	ne
 677 0324 0120     		movne	r0, #1
 678 0326 38BD     		pop	{r3, r4, r5, pc}
ARM GAS  /tmp/ccPZc5IS.s 			page 18


 679              		.cfi_endproc
 680              	.LFE27:
 681              		.size	detectShort, .-detectShort
 682              		.align	2
 683              		.global	detectProblems
 684              		.thumb
 685              		.thumb_func
 686              		.type	detectProblems, %function
 687              	detectProblems:
 688              	.LFB26:
 144:stage1_test.c **** 	int i,j;
 689              		.loc 1 144 0
 690              		.cfi_startproc
 691              		@ args = 0, pretend = 0, frame = 24
 692              		@ frame_needed = 0, uses_anonymous_args = 0
 693              	.LVL95:
 694 0328 2DE9F043 		push	{r4, r5, r6, r7, r8, r9, lr}
 695              		.cfi_def_cfa_offset 28
 696              		.cfi_offset 4, -28
 697              		.cfi_offset 5, -24
 698              		.cfi_offset 6, -20
 699              		.cfi_offset 7, -16
 700              		.cfi_offset 8, -12
 701              		.cfi_offset 9, -8
 702              		.cfi_offset 14, -4
 703 032c 0646     		mov	r6, r0
 148:stage1_test.c **** 	int pins[5] = {TEST1,TEST2,TEST3,TEST4,TEST5};
 704              		.loc 1 148 0
 705 032e DFF898E0 		ldr	lr, .L56
 144:stage1_test.c **** 	int i,j;
 706              		.loc 1 144 0
 707 0332 87B0     		sub	sp, sp, #28
 708              		.cfi_def_cfa_offset 56
 148:stage1_test.c **** 	int pins[5] = {TEST1,TEST2,TEST3,TEST4,TEST5};
 709              		.loc 1 148 0
 710 0334 0DF10408 		add	r8, sp, #4
 147:stage1_test.c **** 	int test_gpios[5] = {TEST1,TEST2,TEST3,TEST4,TEST5};
 711              		.loc 1 147 0
 712 0338 0027     		movs	r7, #0
 146:stage1_test.c **** 	int shorts = 0;
 713              		.loc 1 146 0
 714 033a B946     		mov	r9, r7
 150:stage1_test.c **** 		int x = pins[i];
 715              		.loc 1 150 0
 716 033c 3D46     		mov	r5, r7
 148:stage1_test.c **** 	int pins[5] = {TEST1,TEST2,TEST3,TEST4,TEST5};
 717              		.loc 1 148 0
 718 033e BEE80F00 		ldmia	lr!, {r0, r1, r2, r3}
 719              	.LVL96:
 720 0342 4446     		mov	r4, r8
 721 0344 DEF800E0 		ldr	lr, [lr]
 722 0348 0FC4     		stmia	r4!, {r0, r1, r2, r3}
 723 034a C4F800E0 		str	lr, [r4]
 724              	.LVL97:
 725              	.L42:
 144:stage1_test.c **** 	int i,j;
 726              		.loc 1 144 0
ARM GAS  /tmp/ccPZc5IS.s 			page 19


 727 034e 0024     		movs	r4, #0
 728              	.LVL98:
 729              	.L46:
 730              	.LBB8:
 154:stage1_test.c **** 				if (components[i] == 3) {
 731              		.loc 1 154 0
 732 0350 A542     		cmp	r5, r4
 733 0352 05D0     		beq	.L43
 154:stage1_test.c **** 				if (components[i] == 3) {
 734              		.loc 1 154 0 is_stmt 0 discriminator 1
 735 0354 56F82530 		ldr	r3, [r6, r5, lsl #2]
 736 0358 56F82420 		ldr	r2, [r6, r4, lsl #2]
 737 035c 9342     		cmp	r3, r2
 738 035e 13D0     		beq	.L53
 739              	.L43:
 153:stage1_test.c **** 			if ( (i != j) && (components[i] == components[j]) ) {
 740              		.loc 1 153 0 is_stmt 1 discriminator 2
 741 0360 0134     		adds	r4, r4, #1
 742              	.LVL99:
 743 0362 052C     		cmp	r4, #5
 744 0364 F4D1     		bne	.L46
 745              	.LBE8:
 150:stage1_test.c **** 		int x = pins[i];
 746              		.loc 1 150 0 discriminator 2
 747 0366 0135     		adds	r5, r5, #1
 748              	.LVL100:
 749 0368 052D     		cmp	r5, #5
 750 036a F0D1     		bne	.L42
 167:stage1_test.c **** 	else if (opens && !shorts) return 2;
 751              		.loc 1 167 0
 752 036c 3B1C     		adds	r3, r7, #0
 753 036e 18BF     		it	ne
 754 0370 0123     		movne	r3, #1
 755 0372 19F10002 		adds	r2, r9, #0
 756 0376 18BF     		it	ne
 757 0378 0122     		movne	r2, #1
 758 037a 1A42     		tst	r2, r3
 759 037c 18BF     		it	ne
 760 037e 0320     		movne	r0, #3
 761 0380 11D0     		beq	.L54
 762              	.L48:
 171:stage1_test.c **** 
 763              		.loc 1 171 0
 764 0382 07B0     		add	sp, sp, #28
 765              		.cfi_remember_state
 766              		.cfi_def_cfa_offset 28
 767              		@ sp needed
 768 0384 BDE8F083 		pop	{r4, r5, r6, r7, r8, r9, pc}
 769              	.LVL101:
 770              	.L53:
 771              		.cfi_restore_state
 772              	.LBB9:
 155:stage1_test.c **** 					if (detectShort(test_gpios[i],
 773              		.loc 1 155 0
 774 0388 032B     		cmp	r3, #3
 775 038a 01D0     		beq	.L55
 776              	.L44:
ARM GAS  /tmp/ccPZc5IS.s 			page 20


 163:stage1_test.c **** 			}
 777              		.loc 1 163 0
 778 038c 0137     		adds	r7, r7, #1
 779              	.LVL102:
 780 038e E7E7     		b	.L43
 781              	.L55:
 156:stage1_test.c **** 						test_gpios[j]))
 782              		.loc 1 156 0
 783 0390 58F82500 		ldr	r0, [r8, r5, lsl #2]
 784 0394 58F82410 		ldr	r1, [r8, r4, lsl #2]
 785 0398 FFF7FEFF 		bl	detectShort
 786              	.LVL103:
 787 039c 0028     		cmp	r0, #0
 788 039e F5D1     		bne	.L44
 160:stage1_test.c **** 				}
 789              		.loc 1 160 0
 790 03a0 09F10109 		add	r9, r9, #1
 791              	.LVL104:
 792 03a4 DCE7     		b	.L43
 793              	.L54:
 794              	.LBE9:
 168:stage1_test.c **** 	else if (shorts && !opens) return 1;
 795              		.loc 1 168 0
 796 03a6 002F     		cmp	r7, #0
 797 03a8 14BF     		ite	ne
 798 03aa 0022     		movne	r2, #0
 799 03ac 02F00102 		andeq	r2, r2, #1
 167:stage1_test.c **** 	else if (opens && !shorts) return 2;
 800              		.loc 1 167 0
 801 03b0 B9F1000F 		cmp	r9, #0
 802 03b4 14BF     		ite	ne
 803 03b6 0020     		movne	r0, #0
 804 03b8 03F00100 		andeq	r0, r3, #1
 168:stage1_test.c **** 	else if (shorts && !opens) return 1;
 805              		.loc 1 168 0
 806 03bc 002A     		cmp	r2, #0
 807 03be E0D0     		beq	.L48
 808 03c0 0220     		movs	r0, #2
 171:stage1_test.c **** 
 809              		.loc 1 171 0
 810 03c2 07B0     		add	sp, sp, #28
 811              		.cfi_def_cfa_offset 28
 812              		@ sp needed
 813 03c4 BDE8F083 		pop	{r4, r5, r6, r7, r8, r9, pc}
 814              	.LVL105:
 815              	.L57:
 816              		.align	2
 817              	.L56:
 818 03c8 98000000 		.word	.LANCHOR0+152
 819              		.cfi_endproc
 820              	.LFE26:
 821              		.size	detectProblems, .-detectProblems
 822              		.section	.text.startup,"ax",%progbits
 823              		.align	2
 824              		.global	main
 825              		.thumb
 826              		.thumb_func
ARM GAS  /tmp/ccPZc5IS.s 			page 21


 827              		.type	main, %function
 828              	main:
 829              	.LFB23:
  23:stage1_test.c **** 	//setDirGPIO(7,0);
 830              		.loc 1 23 0
 831              		.cfi_startproc
 832              		@ args = 0, pretend = 0, frame = 32
 833              		@ frame_needed = 0, uses_anonymous_args = 0
 834              	.LVL106:
 835 0000 30B5     		push	{r4, r5, lr}
 836              		.cfi_def_cfa_offset 12
 837              		.cfi_offset 4, -12
 838              		.cfi_offset 5, -8
 839              		.cfi_offset 14, -4
 840 0002 8BB0     		sub	sp, sp, #44
 841              		.cfi_def_cfa_offset 56
  28:stage1_test.c **** 		test_pins[2],test_pins[3],test_pins[4]);
 842              		.loc 1 28 0
 843 0004 40F20000 		movw	r0, #:lower16:.LC11
 844 0008 3123     		movs	r3, #49
 845 000a 7322     		movs	r2, #115
 846 000c 0093     		str	r3, [sp]
 847 000e C0F20000 		movt	r0, #:upper16:.LC11
 848 0012 0323     		movs	r3, #3
 849 0014 0F21     		movs	r1, #15
 850 0016 0193     		str	r3, [sp, #4]
 851 0018 0223     		movs	r3, #2
 852 001a FFF7FEFF 		bl	printf
 853              	.LVL107:
  34:stage1_test.c **** 	time_des_test.tv_sec = 0;
 854              		.loc 1 34 0
 855 001e 44F24023 		movw	r3, #16960
  33:stage1_test.c **** 	time_des.tv_nsec = 1000000; //10ms
 856              		.loc 1 33 0
 857 0022 0022     		movs	r2, #0
  34:stage1_test.c **** 	time_des_test.tv_sec = 0;
 858              		.loc 1 34 0
 859 0024 C0F20F03 		movt	r3, 15
  33:stage1_test.c **** 	time_des.tv_nsec = 1000000; //10ms
 860              		.loc 1 33 0
 861 0028 0392     		str	r2, [sp, #12]
  34:stage1_test.c **** 	time_des_test.tv_sec = 0;
 862              		.loc 1 34 0
 863 002a 0493     		str	r3, [sp, #16]
 864              	.LVL108:
 865 002c 03E0     		b	.L72
 866              	.L59:
  99:stage1_test.c **** 		//writeGPIO(7,readGPIO(14));
 867              		.loc 1 99 0
 868 002e 03A8     		add	r0, sp, #12
 869 0030 0021     		movs	r1, #0
 870 0032 FFF7FEFF 		bl	nanosleep
 871              	.LVL109:
 872              	.L72:
  38:stage1_test.c **** 			/*setDirGPIO(2,0);
 873              		.loc 1 38 0
 874 0036 7020     		movs	r0, #112
ARM GAS  /tmp/ccPZc5IS.s 			page 22


 875 0038 FFF7FEFF 		bl	readGPIO
 876              	.LVL110:
 877 003c 0028     		cmp	r0, #0
 878 003e F6D0     		beq	.L59
 879              	.LBB10:
  53:stage1_test.c **** 			component[1] = testComponent(TEST2,&time_des); 
 880              		.loc 1 53 0
 881 0040 03A9     		add	r1, sp, #12
 882 0042 0F20     		movs	r0, #15
 883 0044 FFF7FEFF 		bl	testComponent
 884              	.LVL111:
  54:stage1_test.c **** 			component[2] = testComponent(TEST3,&time_des); 
 885              		.loc 1 54 0
 886 0048 03A9     		add	r1, sp, #12
  53:stage1_test.c **** 			component[1] = testComponent(TEST2,&time_des); 
 887              		.loc 1 53 0
 888 004a 0590     		str	r0, [sp, #20]
  54:stage1_test.c **** 			component[2] = testComponent(TEST3,&time_des); 
 889              		.loc 1 54 0
 890 004c 7320     		movs	r0, #115
 891 004e FFF7FEFF 		bl	testComponent
 892              	.LVL112:
  55:stage1_test.c **** 			component[3] = testComponent(TEST4,&time_des); 
 893              		.loc 1 55 0
 894 0052 03A9     		add	r1, sp, #12
  54:stage1_test.c **** 			component[2] = testComponent(TEST3,&time_des); 
 895              		.loc 1 54 0
 896 0054 0690     		str	r0, [sp, #24]
  55:stage1_test.c **** 			component[3] = testComponent(TEST4,&time_des); 
 897              		.loc 1 55 0
 898 0056 0220     		movs	r0, #2
 899 0058 FFF7FEFF 		bl	testComponent
 900              	.LVL113:
  56:stage1_test.c **** 			component[4] = testComponent(TEST5,&time_des); 
 901              		.loc 1 56 0
 902 005c 03A9     		add	r1, sp, #12
  55:stage1_test.c **** 			component[3] = testComponent(TEST4,&time_des); 
 903              		.loc 1 55 0
 904 005e 0790     		str	r0, [sp, #28]
  56:stage1_test.c **** 			component[4] = testComponent(TEST5,&time_des); 
 905              		.loc 1 56 0
 906 0060 3120     		movs	r0, #49
 907 0062 FFF7FEFF 		bl	testComponent
 908              	.LVL114:
  57:stage1_test.c **** 			int problem = detectProblems(component);
 909              		.loc 1 57 0
 910 0066 03A9     		add	r1, sp, #12
  56:stage1_test.c **** 			component[4] = testComponent(TEST5,&time_des); 
 911              		.loc 1 56 0
 912 0068 0890     		str	r0, [sp, #32]
  57:stage1_test.c **** 			int problem = detectProblems(component);
 913              		.loc 1 57 0
 914 006a 0320     		movs	r0, #3
 915 006c FFF7FEFF 		bl	testComponent
 916              	.LVL115:
 917 0070 0990     		str	r0, [sp, #36]
  58:stage1_test.c **** 			if (problem == 3)
ARM GAS  /tmp/ccPZc5IS.s 			page 23


 918              		.loc 1 58 0
 919 0072 05A8     		add	r0, sp, #20
 920 0074 FFF7FEFF 		bl	detectProblems
 921              	.LVL116:
  59:stage1_test.c **** 				printf("Probe is not fully engaged and "
 922              		.loc 1 59 0
 923 0078 0328     		cmp	r0, #3
  58:stage1_test.c **** 			if (problem == 3)
 924              		.loc 1 58 0
 925 007a 0146     		mov	r1, r0
 926              	.LVL117:
  59:stage1_test.c **** 				printf("Probe is not fully engaged and "
 927              		.loc 1 59 0
 928 007c 51D0     		beq	.L78
  62:stage1_test.c **** 				printf("Probe is not fully engaged.\n");
 929              		.loc 1 62 0
 930 007e 0228     		cmp	r0, #2
 931 0080 56D0     		beq	.L79
  64:stage1_test.c **** 				printf("Some test leads are shorted.\n");
 932              		.loc 1 64 0
 933 0082 0128     		cmp	r0, #1
 934 0084 5BD0     		beq	.L80
  66:stage1_test.c **** 				printf("Test is acceptable.\n");
 935              		.loc 1 66 0
 936 0086 0028     		cmp	r0, #0
 937 0088 D1D1     		bne	.L59
 938              	.LBB11:
  67:stage1_test.c **** 				int j;
 939              		.loc 1 67 0
 940 008a 40F20000 		movw	r0, #:lower16:.LC15
 941              	.LVL118:
  69:stage1_test.c **** 					printf("%d: ",j+1);
 942              		.loc 1 69 0
 943 008e 0C46     		mov	r4, r1
  67:stage1_test.c **** 				int j;
 944              		.loc 1 67 0
 945 0090 C0F20000 		movt	r0, #:upper16:.LC15
 946 0094 05AD     		add	r5, sp, #20
 947 0096 FFF7FEFF 		bl	puts
 948              	.LVL119:
 949              	.L71:
  70:stage1_test.c **** 					switch (component[j]) {
 950              		.loc 1 70 0
 951 009a 0134     		adds	r4, r4, #1
 952              	.LVL120:
 953 009c 40F20000 		movw	r0, #:lower16:.LC16
 954 00a0 C0F20000 		movt	r0, #:upper16:.LC16
 955 00a4 2146     		mov	r1, r4
 956 00a6 FFF7FEFF 		bl	printf
 957              	.LVL121:
  71:stage1_test.c **** 						case 0:
 958              		.loc 1 71 0
 959 00aa 55F8043B 		ldr	r3, [r5], #4
 960 00ae 013B     		subs	r3, r3, #1
 961 00b0 042B     		cmp	r3, #4
 962 00b2 0AD8     		bhi	.L64
 963 00b4 DFE803F0 		tbb	[pc, r3]
ARM GAS  /tmp/ccPZc5IS.s 			page 24


 964              	.L66:
 965 00b8 27       		.byte	(.L65-.L66)/2
 966 00b9 20       		.byte	(.L67-.L66)/2
 967 00ba 19       		.byte	(.L68-.L66)/2
 968 00bb 03       		.byte	(.L69-.L66)/2
 969 00bc 2E       		.byte	(.L70-.L66)/2
 970 00bd 00       		.p2align 1
 971              	.L69:
  84:stage1_test.c **** 							break;
 972              		.loc 1 84 0
 973 00be 40F20000 		movw	r0, #:lower16:.LC20
 974 00c2 C0F20000 		movt	r0, #:upper16:.LC20
 975 00c6 FFF7FEFF 		bl	puts
 976              	.LVL122:
 977              	.L64:
  69:stage1_test.c **** 					printf("%d: ",j+1);
 978              		.loc 1 69 0 discriminator 1
 979 00ca 052C     		cmp	r4, #5
 980 00cc E5D1     		bne	.L71
  91:stage1_test.c **** 					component[1],component[2],
 981              		.loc 1 91 0
 982 00ce 089D     		ldr	r5, [sp, #32]
 983 00d0 40F20000 		movw	r0, #:lower16:.LC22
 984 00d4 099C     		ldr	r4, [sp, #36]
 985              	.LVL123:
 986 00d6 C0F20000 		movt	r0, #:upper16:.LC22
 987 00da 0599     		ldr	r1, [sp, #20]
 988 00dc 069A     		ldr	r2, [sp, #24]
 989 00de 079B     		ldr	r3, [sp, #28]
 990 00e0 0095     		str	r5, [sp]
 991 00e2 0194     		str	r4, [sp, #4]
 992 00e4 FFF7FEFF 		bl	printf
 993              	.LVL124:
 994 00e8 A1E7     		b	.L59
 995              	.LVL125:
 996              	.L68:
  81:stage1_test.c **** 							break;
 997              		.loc 1 81 0
 998 00ea 40F20000 		movw	r0, #:lower16:.LC19
 999 00ee C0F20000 		movt	r0, #:upper16:.LC19
 1000 00f2 FFF7FEFF 		bl	puts
 1001              	.LVL126:
  82:stage1_test.c **** 						case 4:
 1002              		.loc 1 82 0
 1003 00f6 E8E7     		b	.L64
 1004              	.L67:
  78:stage1_test.c **** 							break;
 1005              		.loc 1 78 0
 1006 00f8 40F20000 		movw	r0, #:lower16:.LC18
 1007 00fc C0F20000 		movt	r0, #:upper16:.LC18
 1008 0100 FFF7FEFF 		bl	puts
 1009              	.LVL127:
  79:stage1_test.c **** 						case 3:
 1010              		.loc 1 79 0
 1011 0104 E1E7     		b	.L64
 1012              	.L65:
  75:stage1_test.c **** 							break;
ARM GAS  /tmp/ccPZc5IS.s 			page 25


 1013              		.loc 1 75 0
 1014 0106 40F20000 		movw	r0, #:lower16:.LC17
 1015 010a C0F20000 		movt	r0, #:upper16:.LC17
 1016 010e FFF7FEFF 		bl	puts
 1017              	.LVL128:
  76:stage1_test.c **** 						case 2:
 1018              		.loc 1 76 0
 1019 0112 DAE7     		b	.L64
 1020              	.L70:
  87:stage1_test.c **** 							break;
 1021              		.loc 1 87 0
 1022 0114 40F20000 		movw	r0, #:lower16:.LC21
 1023 0118 C0F20000 		movt	r0, #:upper16:.LC21
 1024 011c FFF7FEFF 		bl	puts
 1025              	.LVL129:
  88:stage1_test.c **** 					}	
 1026              		.loc 1 88 0
 1027 0120 D3E7     		b	.L64
 1028              	.LVL130:
 1029              	.L78:
 1030              	.LBE11:
  60:stage1_test.c **** 					"some test leads are shorted.\n");
 1031              		.loc 1 60 0
 1032 0122 40F20000 		movw	r0, #:lower16:.LC12
 1033              	.LVL131:
 1034 0126 C0F20000 		movt	r0, #:upper16:.LC12
 1035 012a FFF7FEFF 		bl	puts
 1036              	.LVL132:
 1037 012e 7EE7     		b	.L59
 1038              	.LVL133:
 1039              	.L79:
  63:stage1_test.c **** 			else if (problem == 1)
 1040              		.loc 1 63 0
 1041 0130 40F20000 		movw	r0, #:lower16:.LC13
 1042              	.LVL134:
 1043 0134 C0F20000 		movt	r0, #:upper16:.LC13
 1044 0138 FFF7FEFF 		bl	puts
 1045              	.LVL135:
 1046 013c 77E7     		b	.L59
 1047              	.LVL136:
 1048              	.L80:
  65:stage1_test.c **** 			else if (problem == 0) {
 1049              		.loc 1 65 0
 1050 013e 40F20000 		movw	r0, #:lower16:.LC14
 1051              	.LVL137:
 1052 0142 C0F20000 		movt	r0, #:upper16:.LC14
 1053 0146 FFF7FEFF 		bl	puts
 1054              	.LVL138:
 1055 014a 70E7     		b	.L59
 1056              	.LBE10:
 1057              		.cfi_endproc
 1058              	.LFE23:
 1059              		.size	main, .-main
 1060              		.section	.rodata
 1061              		.align	2
 1062              	.LANCHOR0 = . + 0
 1063              	.LC1:
ARM GAS  /tmp/ccPZc5IS.s 			page 26


 1064 0000 2F737973 		.ascii	"/sys/devices/platform/ocp/44e0d000.tscadc/TI-am335x"
 1064      2F646576 
 1064      69636573 
 1064      2F706C61 
 1064      74666F72 
 1065 0033 2D616463 		.ascii	"-adc/iio:device0/in_voltage\000"
 1065      2F69696F 
 1065      3A646576 
 1065      69636530 
 1065      2F696E5F 
 1066 004f 00000000 		.space	21
 1066      00000000 
 1066      00000000 
 1066      00000000 
 1066      00000000 
 1067              	.LC5:
 1068 0064 2F737973 		.ascii	"/sys/class/gpio/gpio\000"
 1068      2F636C61 
 1068      73732F67 
 1068      70696F2F 
 1068      6770696F 
 1069 0079 00000000 		.space	29
 1069      00000000 
 1069      00000000 
 1069      00000000 
 1069      00000000 
 1070 0096 0000     		.space	2
 1071              	.LC0:
 1072 0098 0F000000 		.word	15
 1073 009c 73000000 		.word	115
 1074 00a0 02000000 		.word	2
 1075 00a4 31000000 		.word	49
 1076 00a8 03000000 		.word	3
 1077              		.section	.rodata.str1.4,"aMS",%progbits,1
 1078              		.align	2
 1079              	.LC2:
 1080 0000 25645F72 		.ascii	"%d_raw\000"
 1080      617700
 1081 0007 00       		.space	1
 1082              	.LC3:
 1083 0008 7200     		.ascii	"r\000"
 1084 000a 0000     		.space	2
 1085              	.LC4:
 1086 000c 256400   		.ascii	"%d\000"
 1087 000f 00       		.space	1
 1088              	.LC6:
 1089 0010 25642F76 		.ascii	"%d/value\000"
 1089      616C7565 
 1089      00
 1090 0019 000000   		.space	3
 1091              	.LC7:
 1092 001c 7700     		.ascii	"w\000"
 1093 001e 0000     		.space	2
 1094              	.LC8:
 1095 0020 25642F64 		.ascii	"%d/direction\000"
 1095      69726563 
 1095      74696F6E 
ARM GAS  /tmp/ccPZc5IS.s 			page 27


 1095      00
 1096 002d 000000   		.space	3
 1097              	.LC9:
 1098 0030 696E00   		.ascii	"in\000"
 1099 0033 00       		.space	1
 1100              	.LC10:
 1101 0034 6F757400 		.ascii	"out\000"
 1102              	.LC11:
 1103 0038 70696E73 		.ascii	"pins: %d, %d, %d, %d, %d\012\000"
 1103      3A202564 
 1103      2C202564 
 1103      2C202564 
 1103      2C202564 
 1104 0052 0000     		.space	2
 1105              	.LC12:
 1106 0054 50726F62 		.ascii	"Probe is not fully engaged and some test leads are "
 1106      65206973 
 1106      206E6F74 
 1106      2066756C 
 1106      6C792065 
 1107 0087 73686F72 		.ascii	"shorted.\000"
 1107      7465642E 
 1107      00
 1108              	.LC13:
 1109 0090 50726F62 		.ascii	"Probe is not fully engaged.\000"
 1109      65206973 
 1109      206E6F74 
 1109      2066756C 
 1109      6C792065 
 1110              	.LC14:
 1111 00ac 536F6D65 		.ascii	"Some test leads are shorted.\000"
 1111      20746573 
 1111      74206C65 
 1111      61647320 
 1111      61726520 
 1112 00c9 000000   		.space	3
 1113              	.LC15:
 1114 00cc 54657374 		.ascii	"Test is acceptable.\000"
 1114      20697320 
 1114      61636365 
 1114      70746162 
 1114      6C652E00 
 1115              	.LC16:
 1116 00e0 25643A20 		.ascii	"%d: \000"
 1116      00
 1117 00e5 000000   		.space	3
 1118              	.LC17:
 1119 00e8 57697265 		.ascii	"Wire\000"
 1119      00
 1120 00ed 000000   		.space	3
 1121              	.LC18:
 1122 00f0 52657369 		.ascii	"Resistor\000"
 1122      73746F72 
 1122      00
 1123 00f9 000000   		.space	3
 1124              	.LC19:
 1125 00fc 43617061 		.ascii	"Capacitor\000"
ARM GAS  /tmp/ccPZc5IS.s 			page 28


 1125      6369746F 
 1125      7200
 1126 0106 0000     		.space	2
 1127              	.LC20:
 1128 0108 496E6475 		.ascii	"Inductor\000"
 1128      63746F72 
 1128      00
 1129 0111 000000   		.space	3
 1130              	.LC21:
 1131 0114 44696F64 		.ascii	"Diode\000"
 1131      6500
 1132 011a 0000     		.space	2
 1133              	.LC22:
 1134 011c 436F6465 		.ascii	"Code: %d %d %d %d %d\012\000"
 1134      3A202564 
 1134      20256420 
 1134      25642025 
 1134      64202564 
 1135 0132 0000     		.text
 1136              	.Letext0:
 1137              		.file 2 "/usr/lib/gcc/arm-linux-gnueabihf/4.9/include/stddef.h"
 1138              		.file 3 "/usr/include/arm-linux-gnueabihf/bits/types.h"
 1139              		.file 4 "/usr/include/stdio.h"
 1140              		.file 5 "/usr/include/libio.h"
 1141              		.file 6 "/usr/include/time.h"
 1142              		.file 7 "/usr/include/string.h"
 1143              		.file 8 "<built-in>"
 4705              		.section	.note.GNU-stack,"",%progbits
ARM GAS  /tmp/ccPZc5IS.s 			page 95

